; Function Attrs: nounwind uwtable
define internal fastcc range(i32 -30, 1) i32 @gnu_add_sparse_entry(ptr noundef %0, ptr noundef captures(none) %1, i64 noundef %2, i64 noundef %3) unnamed_addr #0 {
  %5 = tail call noalias dereferenceable_or_null(32) ptr @calloc(i64 noundef 1, i64 noundef 32) #14
  %6 = icmp eq ptr %5, null
  br i1 %6, label %7, label %8

7:                                                ; preds = %4
  tail call void (ptr, i32, ptr, ...) @archive_set_error(ptr noundef %0, i32 noundef 12, ptr noundef nonnull @.str.130) #13
  br label %22

8:                                                ; preds = %4
  %9 = getelementptr inbounds nuw i8, ptr %1, i64 200
  %10 = load ptr, ptr %9, align 8, !tbaa !52
  %.not = icmp eq ptr %10, null
  br i1 %.not, label %12, label %11

11:                                               ; preds = %8
  store ptr %5, ptr %10, align 8, !tbaa !49
  br label %14

12:                                               ; preds = %8
  %13 = getelementptr inbounds nuw i8, ptr %1, i64 192
  store ptr %5, ptr %13, align 8, !tbaa !48
  br label %14

14:                                               ; preds = %12, %11
  store ptr %5, ptr %9, align 8, !tbaa !52
  %15 = or i64 %3, %2
  %or.cond.not = icmp slt i64 %15, 0
  %16 = sub nuw nsw i64 9223372036854775807, %3
  %17 = icmp sgt i64 %2, %16
  %or.cond = select i1 %or.cond.not, i1 true, i1 %17
  br i1 %or.cond, label %18, label %19

18:                                               ; preds = %14
  tail call void (ptr, i32, ptr, ...) @archive_set_error(ptr noundef %0, i32 noundef -1, ptr noundef nonnull @.str.131) #13
  br label %22

19:                                               ; preds = %14
  %20 = getelementptr inbounds nuw i8, ptr %5, i64 8
  store i64 %2, ptr %20, align 8, !tbaa !76
  %21 = getelementptr inbounds nuw i8, ptr %5, i64 16
  store i64 %3, ptr %21, align 8, !tbaa !82
  br label %22

22:                                               ; preds = %19, %18, %7
  %.0 = phi i32 [ -30, %7 ], [ -30, %18 ], [ 0, %19 ]
  ret i32 %.0
}